; Function Attrs: mustprogress nofree norecurse nosync nounwind willreturn memory(read, inaccessiblemem: none) uwtable
define i32 @sws_receive_slice_alignment(ptr noundef readonly captures(none) %0) local_unnamed_addr #8 {
  %2 = getelementptr inbounds nuw i8, ptr %0, i64 128
  %3 = load ptr, ptr %2, align 16, !tbaa !136
  %.not = icmp eq ptr %3, null
  br i1 %.not, label %6, label %4

4:                                                ; preds = %1
  %5 = load ptr, ptr %3, align 8, !tbaa !137
  br label %6

6:                                                ; preds = %1, %4
  %.pn = phi ptr [ %5, %4 ], [ %0, %1 ]
  %.0.in = getelementptr inbounds nuw i8, ptr %.pn, i64 53188
  %.0 = load i32, ptr %.0.in, align 4, !tbaa !138
  ret i32 %.0
}